00001  0000             ; BUNNY GAME
00002  0001             ; MADE IN 2021 BY MIA/FLUFFYFOXBUNNY
00003  0001             
00004  0001             *=$0801
00005  0801             
00006  0801  0B 08 0A              BYTE    $0B, $08, $0A, $00, $9E, $34, $39, $31, $35, $32, $00, $00, $00
00007  080E             
00008  080E             
00009  080E             *=$C000
00010  C000             
00011  C000             START
00012  C000             
00013  C000  A9 40                 LDA #$40 ;CLEAN VARIABLES
00014  C002  8D 90 C1              STA SPRITEXLO
00015  C005  A9 F0                 LDA #$F0
00016  C007  8D 91 C1              STA SPRITEXLO+1
00017  C00A  A9 E0                 LDA #$E0
00018  C00C  8D 92 C1              STA SPRITEXLO+2
00019  C00F             
00020  C00F  A9 BB                 LDA #$BB
00021  C011  8D A0 C1              STA SPRITEY
00022  C014  A9 AF                 LDA #$AF
00023  C016  8D A1 C1              STA SPRITEY+1
00024  C019  A9 90                 LDA #$90
00025  C01B  8D A2 C1              STA SPRITEY+2
00026  C01E  A9 00                 LDA #0
00027  C020  8D 98 C1              STA SPRITEXHI
00028  C023  8D A9 C1              STA BUTTONDOWN
00029  C026  8D AA C1              STA GAMEOVER
00030  C029                        
00031  C029             ;THIS IS WHERE THINGS START
00032  C029  20 5B C0              JSR DRAWBACKGROUND
00033  C02C  20 9E C0              JSR INITSPRITES
00034  C02F             LOOP
00035  C02F  20 CA C0              JSR CHECKJOYSTICK
00036  C032             LOOPCONT
00037  C032  20 3E C0              JSR POSITIONSPRITES
00038  C035  20 3E C1              JSR WAITRASTER
00039  C038  20 7E C1              JSR CHECKGAMEOVER
00040  C03B             
00041  C03B                        
00042  C03B  4C 2F C0              JMP LOOP
00043  C03E             
00044  C03E             
00045  C03E             POSITIONSPRITES 
00046  C03E  A2 0F                 LDX #$F
00047  C040  A0 07                 LDY #$7
00048  C042             PLOOP
00049  C042  B9 A0 C1              LDA SPRITEY,Y
00050  C045  9D 00 D0              STA $D000,X
00051  C048  CA                    DEX
00052  C049  B9 90 C1              LDA SPRITEXLO,Y
00053  C04C  9D 00 D0              STA $D000,X
00054  C04F  B9 98 C1              LDA SPRITEXHI,Y
00055  C052  6A                    ROR A
00056  C053  2E 10 D0              ROL $D010
00057  C056  CA                    DEX
00058  C057  88                    DEY
00059  C058  10 E8                 BPL PLOOP
00060  C05A  60                    RTS
00061  C05B             
00062  C05B             
00063  C05B             DRAWBACKGROUND 
00064  C05B             
00065  C05B  A9 0E                 LDA #14
00066  C05D  8D 20 D0              STA $D020
00067  C060  8D 21 D0              STA $D021
00068  C063  A2 00                 LDX #$00
00069  C065                        
00070  C065             
00071  C065             BGLOOP     ;FILL BACKGROUND CHARS
00072  C065  BD C1 21              LDA BGCHAR+1,X
00073  C068  9D 00 04              STA $400,X
00074  C06B  BD C0 22              LDA BGCHAR+256,X
00075  C06E  9D 00 05              STA $500,X
00076  C071  BD C0 23              LDA BGCHAR+512,X
00077  C074  9D 00 06              STA $600,X
00078  C077  BD C0 24              LDA BGCHAR+768,X
00079  C07A  9D 00 07              STA $700,X
00080  C07D  E8                    INX
00081  C07E  D0 E5                 BNE BGLOOP
00082  C080  A2 00                 LDX #$00
00083  C082             
00084  C082             BGLOOP2    ;FILL BACKGROUND COLORS
00085  C082  BD A8 25              LDA BGCOL,X
00086  C085  9D 00 D8              STA $D800,X
00087  C088  BD A8 26              LDA BGCOL+256,X
00088  C08B  9D 00 D9              STA $D900,X
00089  C08E  BD A8 27              LDA BGCOL+512,X
00090  C091  9D 00 DA              STA $DA00,X
00091  C094  BD A8 28              LDA BGCOL+768,X
00092  C097  9D 00 DB              STA $DB00,X
00093  C09A  E8                    INX
00094  C09B  D0 E5                 BNE BGLOOP2
00095  C09D                        
00096  C09D  60                    RTS
00097  C09E             
00098  C09E             INITSPRITES 
00099  C09E                        
00100  C09E  A9 03                 LDA #$3
00101  C0A0  8D 15 D0              STA $D015
00102  C0A3  A9 FF                 LDA #$FF
00103  C0A5  8D 17 D0              STA $D017 ;EXPAND Y
00104  C0A8  8D 1D D0              STA $D01D ;EXPAND X
00105  C0AB             
00106  C0AB  A9 09                 LDA #9     ;SPRITE COLORS
00107  C0AD  8D 27 D0              STA $D027
00108  C0B0  A9 05                 LDA #5
00109  C0B2  8D 28 D0              STA $D028
00110  C0B5  A9 04                 LDA #4
00111  C0B7  8D 29 D0              STA $D029
00112  C0BA             
00113  C0BA             
00114  C0BA  A9 80                 LDA #$80 ;SPRITE POINTERS
00115  C0BC  8D F8 07              STA $07F8
00116  C0BF  A9 83                 LDA #$83
00117  C0C1  8D F9 07              STA $07F9
00118  C0C4  A9 86                 LDA #$86
00119  C0C6  8D FA 07              STA $07FA
00120  C0C9             
00121  C0C9  60                    RTS
00122  C0CA             
00123  C0CA             CHECKJOYSTICK 
00124  C0CA                        
00125  C0CA             
00126  C0CA             
00127  C0CA  AD 00 DC              LDA $DC00
00128  C0CD  4A                    LSR A
00129  C0CE  4A                    LSR A
00130  C0CF  4A                    LSR A
00131  C0D0  B0 12                 BCS CHECKRIGHT
00132  C0D2             
00133  C0D2  A2 01                 LDX #1
00134  C0D4  8E A8 C1              STX WALKING
00135  C0D7  CE 90 C1              DEC SPRITEXLO
00136  C0DA  AC 90 C1              LDY SPRITEXLO
00137  C0DD  C0 FF                 CPY #$FF
00138  C0DF  D0 03                 BNE CHECKRIGHT
00139  C0E1  CE 98 C1              DEC SPRITEXHI
00140  C0E4             CHECKRIGHT 
00141  C0E4  4A                    LSR
00142  C0E5  B0 0D                 BCS CHKBUTTON ;IF RIGHT ISN'T PRESSED,BRANCH
00143  C0E7  A2 01                 LDX #1
00144  C0E9  8E A8 C1              STX WALKING
00145  C0EC  EE 90 C1              INC SPRITEXLO
00146  C0EF  D0 03                 BNE CHKBUTTON
00147  C0F1  EE 98 C1              INC SPRITEXHI
00148  C0F4             
00149  C0F4             CHKBUTTON
00150  C0F4  4A                    LSR
00151  C0F5  B0 22                 BCS END
00152  C0F7  AE A9 C1              LDX BUTTONDOWN
00153  C0FA  E0 01                 CPX #1
00154  C0FC  F0 1B                 BEQ END
00155  C0FE  A2 01                 LDX #1
00156  C100  8E A9 C1              STX BUTTONDOWN
00157  C103  AD 1E D0              LDA $D01E
00158  C106  C9 03                 CMP #%00000011 ;CHECK COLLISION
00159  C108  D0 0F                 BNE END
00160  C10A  EE F9 07              INC $07F9
00161  C10D  AE F9 07              LDX $07F9
00162  C110  E0 85                 CPX #$85
00163  C112  D0 05                 BNE END
00164  C114  A2 01                 LDX #1
00165  C116  8E AA C1              STX GAMEOVER
00166  C119             
00167  C119             END        
00168  C119                        
00169  C119  AD 00 DC              LDA $DC00
00170  C11C  4A                    LSR A
00171  C11D  4A                    LSR A
00172  C11E  4A                    LSR A
00173  C11F  4A                    LSR A
00174  C120  4A                    LSR A
00175  C121  90 1A                 BCC END2
00176  C123  A9 00                 LDA #0
00177  C125  8D A9 C1              STA BUTTONDOWN
00178  C128             
00179  C128  AD 00 DC              LDA $DC00
00180  C12B  4A                    LSR A
00181  C12C  4A                    LSR A
00182  C12D  4A                    LSR A
00183  C12E  90 0D                 BCC END2
00184  C130  4A                    LSR A
00185  C131  90 0A                 BCC END2
00186  C133  A9 00                 LDA #0
00187  C135  8D A8 C1              STA WALKING
00188  C138  A2 80                 LDX #$80
00189  C13A  8E F8 07              STX $07F8
00190  C13D             
00191  C13D             END2
00192  C13D                        
00193  C13D  60                    RTS
00194  C13E             
00195  C13E             WAITRASTER 
00196  C13E             
00197  C13E  A2 FF                 LDX #$FF
00198  C140             WAITFF
00199  C140  EC 12 D0              CPX $D012
00200  C143  D0 FB                 BNE WAITFF
00201  C145  E8                    INX
00202  C146             
00203  C146             WAIT00
00204  C146  EC 12 D0              CPX $D012
00205  C149  D0 FB                 BNE WAIT00
00206  C14B             
00207  C14B             
00208  C14B  EE AB C1              INC FRAMES
00209  C14E  AD AB C1              LDA FRAMES
00210  C151  C9 10                 CMP #$10 ;ANIMATION STUFF
00211  C153  D0 05                 BNE FREND ;FOR WALKING ANIMATION
00212  C155  A9 00                 LDA #$0
00213  C157  8D AB C1              STA FRAMES
00214  C15A             FREND
00215  C15A  AE A8 C1              LDX WALKING
00216  C15D  F0 1E                 BEQ REND
00217  C15F  AD AB C1              LDA FRAMES
00218  C162  C9 00                 CMP #$0
00219  C164  D0 17                 BNE REND
00220  C166  AE F8 07              LDX $07F8
00221  C169  E0 82                 CPX #$82
00222  C16B  D0 08                 BNE REND2
00223  C16D  A2 80                 LDX #$80
00224  C16F  8E F8 07              STX $07F8
00225  C172  4C 7D C1              JMP REND
00226  C175             REND2
00227  C175  AE F8 07              LDX $07F8
00228  C178  E8                    INX
00229  C179  8E F8 07              STX $07F8
00230  C17C  60                    RTS
00231  C17D                        
00232  C17D             REND
00233  C17D                        
00234  C17D                        
00235  C17D                        
00236  C17D  60                    RTS
00237  C17E             
00238  C17E             CHECKGAMEOVER ;BRINF UP WIN SPRITE
00239  C17E             
00240  C17E  AD AA C1              LDA GAMEOVER
00241  C181  C9 01                 CMP #1
00242  C183  D0 0A                 BNE WAITEND
00243  C185  A9 00                 LDA #00
00244  C187  8D 20 D0              STA $D020
00245  C18A  A9 07                 LDA #$7
00246  C18C  8D 15 D0              STA $D015
00247  C18F                        
00248  C18F             WAITEND
00249  C18F  60                    RTS
00250  C190             
00251  C190             SPRITEXLO
00252  C190  40 F0 E0              BYTE $40,$F0,$E0,$00,$00,$00,$00,$00
00253  C198             SPRITEXHI
00254  C198  00 00 00              BYTE $00,$00,$00,$00,$00,$00,$00,$00
00255  C1A0             SPRITEY
00256  C1A0  BB AF 90              BYTE $BB,$AF,$90,$00,$00,$00,$00,$00
00257  C1A8             WALKING
00258  C1A8  00                    BYTE $00
00259  C1A9             BUTTONDOWN 
00260  C1A9  00                    BYTE $00
00261  C1AA             GAMEOVER   
00262  C1AA  00                    BYTE $00
00263  C1AB             FRAMES
00264  C1AB  00                    BYTE $00
00265  C1AC             
00266  C1AC             
00267  C1AC             *=$2000
00268  2000             
00269  2000             SPRITES
00270  2000             @          
00271  2000  00 00 00              BYTE $00,$00,$00,$00,$00,$00,$00,$00
00272  2008  00 00 00              BYTE $00,$00,$00,$00,$00,$19,$80,$00
00273  2010  15 40 00              BYTE $15,$40,$00,$0F,$C0,$00,$0E,$C0
00274  2018  00 0E E0              BYTE $00,$0E,$E0,$00,$7F,$E0,$01,$FF
00275  2020  C0 07 FF              BYTE $C0,$07,$FF,$80,$07,$FF,$00,$03
00276  2028  FF 00 01              BYTE $FF,$00,$01,$FE,$00,$01,$8C,$00
00277  2030  01 CE 00              BYTE $01,$CE,$00,$00,$00,$00,$00,$00
00278  2038  00 00 00              BYTE $00,$00,$00,$00,$00,$00,$00,$00
00279  2040  00 00 00              BYTE $00,$00,$00,$00,$00,$00,$00,$00
00280  2048  00 00 00              BYTE $00,$00,$00,$00,$00,$19,$80,$00
00281  2050  15 40 00              BYTE $15,$40,$00,$0F,$C0,$00,$0E,$C0
00282  2058  00 0E E0              BYTE $00,$0E,$E0,$00,$7F,$E0,$01,$FF
00283  2060  C0 07 FF              BYTE $C0,$07,$FF,$80,$07,$FF,$00,$03
00284  2068  FF 00 01              BYTE $FF,$00,$01,$FE,$00,$01,$87,$00
00285  2070  01 C0 00              BYTE $01,$C0,$00,$00,$00,$00,$00,$00
00286  2078  00 00 00              BYTE $00,$00,$00,$00,$00,$00,$00,$00
00287  2080  00 00 00              BYTE $00,$00,$00,$00,$00,$00,$00,$00
00288  2088  00 00 00              BYTE $00,$00,$00,$00,$00,$19,$80,$00
00289  2090  15 40 00              BYTE $15,$40,$00,$0F,$C0,$00,$0E,$C0
00290  2098  00 0E E0              BYTE $00,$0E,$E0,$00,$7F,$E0,$01,$FF
00291  20A0  C0 07 FF              BYTE $C0,$07,$FF,$80,$07,$FF,$00,$03
00292  20A8  FF 00 01              BYTE $FF,$00,$01,$FE,$00,$00,$EC,$00
00293  20B0  00 0E 00              BYTE $00,$0E,$00,$00,$00,$00,$00,$00
00294  20B8  00 00 00              BYTE $00,$00,$00,$00,$00,$00,$00,$00
00295  20C0  00 00 00              BYTE $00,$00,$00,$00,$00,$00,$00,$00
00296  20C8  00 00 00              BYTE $00,$00,$00,$00,$00,$00,$00,$00
00297  20D0  00 00 00              BYTE $00,$00,$00,$00,$00,$00,$00,$00
00298  20D8  00 00 00              BYTE $00,$00,$00,$00,$20,$00,$00,$20
00299  20E0  00 00 28              BYTE $00,$00,$28,$00,$00,$28,$40,$00
00300  20E8  28 40 00              BYTE $28,$40,$00,$A8,$C0,$06,$EE,$C0
00301  20F0  02 FE C0              BYTE $02,$FE,$C0,$02,$FE,$C0,$03,$FF
00302  20F8  E0 03 FF              BYTE $E0,$03,$FF,$F0,$03,$FF,$F0,$00
00303  2100  00 00 00              BYTE $00,$00,$00,$00,$00,$00,$00,$00
00304  2108  00 00 00              BYTE $00,$00,$00,$00,$00,$00,$00,$00
00305  2110  00 00 00              BYTE $00,$00,$00,$00,$00,$00,$00,$00
00306  2118  00 00 00              BYTE $00,$00,$00,$00,$00,$00,$00,$00
00307  2120  00 00 00              BYTE $00,$00,$00,$00,$00,$00,$00,$00
00308  2128  00 00 00              BYTE $00,$00,$00,$00,$00,$00,$00,$00
00309  2130  00 00 80              BYTE $00,$00,$80,$00,$5A,$80,$02,$FF
00310  2138  C0 03 FF              BYTE $C0,$03,$FF,$F0,$03,$FF,$F0,$00
00311  2140  00 00 00              BYTE $00,$00,$00,$00,$00,$00,$00,$00
00312  2148  00 00 00              BYTE $00,$00,$00,$00,$00,$00,$00,$00
00313  2150  00 00 00              BYTE $00,$00,$00,$00,$00,$00,$00,$00
00314  2158  00 00 00              BYTE $00,$00,$00,$00,$00,$00,$00,$00
00315  2160  00 00 00              BYTE $00,$00,$00,$00,$00,$00,$00,$00
00316  2168  00 00 00              BYTE $00,$00,$00,$00,$00,$00,$00,$00
00317  2170  00 00 00              BYTE $00,$00,$00,$00,$00,$00,$00,$00
00318  2178  00 00 54              BYTE $00,$00,$54,$80,$03,$FF,$E0,$00
00319  2180  00 00 00              BYTE $00,$00,$00,$0A,$72,$20,$0A,$8A
00320  2188  20 0A 8A              BYTE $20,$0A,$8A,$20,$04,$8A,$20,$04
00321  2190  8A 20 04              BYTE $8A,$20,$04,$8A,$20,$04,$71,$C0
00322  2198  00 00 00              BYTE $00,$00,$00,$08,$99,$20,$08,$A5
00323  21A0  A0 08 A5              BYTE $A0,$08,$A5,$60,$0A,$A5,$20,$0D
00324  21A8  99 20 00              BYTE $99,$20,$00,$00,$00,$0C,$94,$A0
00325  21B0  0A 96 A0              BYTE $0A,$96,$A0,$0C,$95,$A0,$0A,$94
00326  21B8  80 0C 64              BYTE $80,$0C,$64,$A0,$00,$00,$00,$00
00327  21C0             
00328  21C0             @          
00329  21C0                        INCBIN "SPRITES.SPT",1,7,TRUE
00330  21C0             
00331  21C0             BGCHAR
00332  21C0             @          
00333  21C0             ; SCREEN 1 CHARACTER DATA
00334  21C0  A0 A0 A0   	BYTE	$A0,$A0,$A0,$A0,$A0,$A0,$A0,$A0,$A0,$A0,$A0,$A0,$A0,$A0,$A0,$A0,$A0,$A0,$A0,$A0,$A0,$A0,$A0,$A0,$A0,$A0,$A0,$A0,$A0,$A0,$A0,$A0,$A0,$A0,$A0,$A0,$A0,$A0,$A0,$A0 
00335  21E8  A0 A0 A0   	BYTE	$A0,$A0,$A0,$A0,$A0,$A0,$A0,$A0,$A0,$A0,$A0,$A0,$A0,$A0,$A0,$A0,$A0,$A0,$A0,$A0,$A0,$A0,$A0,$A0,$A0,$A0,$A0,$A0,$A0,$A0,$A0,$A0,$A0,$A0,$A0,$A0,$A0,$A0,$A0,$A0 
00336  2210  A0 A0 A0   	BYTE	$A0,$A0,$A0,$A0,$A0,$A0,$A0,$A0,$A0,$A0,$A0,$A0,$A0,$A0,$A0,$A0,$A0,$A0,$A0,$A0,$A0,$A0,$A0,$A0,$A0,$A0,$A0,$A0,$A0,$A0,$A0,$A0,$A0,$A0,$A0,$A0,$A0,$A0,$A0,$A0 
00337  2238  A0 A0 A0   	BYTE	$A0,$A0,$A0,$A0,$A0,$A0,$A0,$A0,$A0,$A0,$A0,$A0,$A0,$A0,$A0,$A0,$A0,$A0,$A0,$A0,$A0,$A0,$A0,$A0,$A0,$A0,$A0,$A0,$A0,$A0,$A0,$A0,$A0,$A0,$A0,$A0,$A0,$A0,$A0,$A0 
00338  2260  A0 A0 A0   	BYTE	$A0,$A0,$A0,$A0,$A0,$A0,$A0,$A0,$A0,$A0,$A0,$A0,$A0,$A0,$A0,$A0,$A0,$A0,$A0,$A0,$A0,$A0,$A0,$A0,$A0,$A0,$A0,$A0,$A0,$A0,$A0,$A0,$A0,$A0,$A0,$A0,$A0,$A0,$A0,$A0 
00339  2288  A0 A0 A0   	BYTE	$A0,$A0,$A0,$A0,$A0,$A0,$A0,$A0,$A0,$A0,$A0,$A0,$A0,$A0,$A0,$A0,$A0,$A0,$A0,$A0,$A0,$A0,$A0,$A0,$A0,$A0,$A0,$A0,$A0,$A0,$A0,$A0,$A0,$A0,$A0,$A0,$A0,$A0,$A0,$A0 
00340  22B0  A0 A0 A0   	BYTE	$A0,$A0,$A0,$A0,$A0,$A0,$A0,$A0,$A0,$A0,$A0,$A0,$A0,$A0,$A0,$A0,$A0,$A0,$A0,$A0,$A0,$A0,$A0,$A0,$A0,$A0,$A0,$A0,$A0,$A0,$A0,$A0,$A0,$A0,$A0,$A0,$A0,$A0,$A0,$A0 
00341  22D8  A0 A0 A0   	BYTE	$A0,$A0,$A0,$A0,$A0,$A0,$A0,$A0,$A0,$A0,$A0,$A0,$A0,$A0,$A0,$A0,$A0,$A0,$A0,$A0,$A0,$A0,$A0,$A0,$A0,$A0,$A0,$A0,$A0,$A0,$A0,$A0,$A0,$A0,$A0,$A0,$A0,$A0,$A0,$A0 
00342  2300  A0 A0 A0   	BYTE	$A0,$A0,$A0,$A0,$A0,$A0,$A0,$A0,$A0,$A0,$A0,$A0,$A0,$A0,$A0,$A0,$A0,$A0,$A0,$A0,$A0,$A0,$A0,$A0,$A0,$A0,$A0,$A0,$A0,$A0,$A0,$A0,$A0,$A0,$A0,$A0,$A0,$A0,$A0,$A0 
00343  2328  A0 A0 A0   	BYTE	$A0,$A0,$A0,$A0,$A0,$A0,$A0,$A0,$A0,$A0,$A0,$A0,$A0,$A0,$A0,$A0,$A0,$A0,$A0,$A0,$A0,$A0,$A0,$A0,$A0,$A0,$A0,$A0,$A0,$A0,$A0,$A0,$A0,$A0,$A0,$A0,$A0,$A0,$A0,$A0 
00344  2350  A0 A0 A0   	BYTE	$A0,$A0,$A0,$A0,$A0,$A0,$A0,$A0,$A0,$A0,$A0,$A0,$A0,$A0,$A0,$A0,$A0,$A0,$A0,$A0,$A0,$A0,$A0,$A0,$A0,$A0,$A0,$A0,$A0,$A0,$A0,$A0,$A0,$A0,$A0,$A0,$A0,$A0,$A0,$A0 
00345  2378  A0 A0 A0   	BYTE	$A0,$A0,$A0,$A0,$A0,$A0,$A0,$A0,$A0,$A0,$A0,$A0,$A0,$A0,$A0,$A0,$A0,$A0,$A0,$A0,$A0,$A0,$A0,$A0,$A0,$A0,$A0,$A0,$A0,$A0,$A0,$A0,$A0,$A0,$A0,$A0,$A0,$A0,$A0,$A0 
00346  23A0  A0 A0 A0   	BYTE	$A0,$A0,$A0,$A0,$A0,$A0,$A0,$A0,$A0,$A0,$A0,$A0,$A0,$A0,$A0,$A0,$A0,$A0,$A0,$A0,$A0,$A0,$A0,$A0,$A0,$A0,$A0,$A0,$A0,$A0,$A0,$A0,$A0,$A0,$A0,$A0,$A0,$A0,$A0,$A0 
00347  23C8  A0 A0 A0   	BYTE	$A0,$A0,$A0,$A0,$A0,$A0,$A0,$A0,$A0,$A0,$A0,$A0,$A0,$A0,$A0,$A0,$A0,$A0,$A0,$A0,$A0,$A0,$A0,$A0,$A0,$A0,$A0,$A0,$A0,$A0,$A0,$A0,$A0,$A0,$A0,$A0,$A0,$A0,$A0,$A0 
00348  23F0  A0 A0 A0   	BYTE	$A0,$A0,$A0,$A0,$A0,$A0,$A0,$A0,$A0,$A0,$A0,$A0,$A0,$A0,$A0,$A0,$A0,$A0,$A0,$A0,$A0,$A0,$A0,$A0,$A0,$A0,$A0,$A0,$A0,$A0,$A0,$A0,$A0,$A0,$A0,$A0,$A0,$A0,$A0,$A0 
00349  2418  A0 A0 A0   	BYTE	$A0,$A0,$A0,$A0,$A0,$A0,$A0,$A0,$A0,$A0,$A0,$A0,$A0,$A0,$A0,$A0,$A0,$A0,$A0,$A0,$A0,$A0,$A0,$A0,$A0,$A0,$A0,$A0,$A0,$A0,$A0,$A0,$A0,$A0,$A0,$A0,$A0,$A0,$A0,$A0 
00350  2440  A0 A0 A0   	BYTE	$A0,$A0,$A0,$A0,$A0,$A0,$A0,$A0,$A0,$A0,$A0,$A0,$A0,$A0,$A0,$A0,$A0,$A0,$A0,$A0,$A0,$A0,$A0,$A0,$A0,$A0,$A0,$A0,$A0,$A0,$A0,$A0,$A0,$A0,$A0,$A0,$A0,$A0,$A0,$A0 
00351  2468  A0 A0 A0   	BYTE	$A0,$A0,$A0,$A0,$A0,$A0,$A0,$A0,$A0,$A0,$A0,$A0,$A0,$A0,$A0,$A0,$A0,$A0,$A0,$A0,$A0,$A0,$A0,$A0,$A0,$A0,$A0,$A0,$A0,$A0,$A0,$A0,$A0,$A0,$A0,$A0,$A0,$A0,$A0,$A0 
00352  2490  A0 A0 A0   	BYTE	$A0,$A0,$A0,$A0,$A0,$A0,$A0,$A0,$A0,$A0,$A0,$A0,$A0,$A0,$A0,$A0,$A0,$A0,$A0,$A0,$A0,$A0,$A0,$A0,$A0,$A0,$A0,$A0,$A0,$A0,$A0,$A0,$A0,$A0,$A0,$A0,$A0,$A0,$A0,$A0 
00353  24B8  A0 A0 A0   	BYTE	$A0,$A0,$A0,$A0,$A0,$A0,$A0,$A0,$A0,$A0,$A0,$A0,$A0,$A0,$A0,$A0,$A0,$A0,$A0,$A0,$A0,$A0,$A0,$A0,$A0,$A0,$A0,$A0,$A0,$A0,$A0,$A0,$A0,$A0,$A0,$A0,$A0,$A0,$A0,$A0 
00354  24E0  E0 E0 E0   	BYTE	$E0,$E0,$E0,$E0,$E0,$E0,$E0,$E0,$E0,$E0,$E0,$E0,$E0,$E0,$E0,$E0,$E0,$E0,$E0,$E0,$E0,$E0,$E0,$E0,$E0,$E0,$E0,$E0,$E0,$E0,$E0,$E0,$E0,$E0,$E0,$E0,$E0,$E0,$E0,$E0 
00355  2508  A0 A0 A0   	BYTE	$A0,$A0,$A0,$A0,$A0,$A0,$A0,$A0,$A0,$A0,$A0,$A0,$E0,$E0,$A0,$A0,$A0,$A0,$A0,$A0,$A0,$A0,$A0,$E0,$A0,$A0,$A0,$A0,$A0,$E0,$A0,$E0,$E0,$E0,$A0,$E0,$E0,$E0,$A0,$E0 
00356  2530  A0 A0 A0   	BYTE	$A0,$A0,$A0,$A0,$A0,$A0,$A0,$A0,$A0,$A0,$A0,$A0,$A0,$A0,$A0,$A0,$A0,$A0,$A0,$A0,$A0,$A0,$A0,$A0,$A0,$A0,$A0,$A0,$A0,$A0,$A0,$A0,$A0,$A0,$A0,$A0,$A0,$A0,$A0,$A0 
00357  2558  A0 A0 A0   	BYTE	$A0,$A0,$A0,$A0,$A0,$A0,$A0,$A0,$A0,$A0,$A0,$A0,$A0,$A0,$A0,$A0,$A0,$A0,$A0,$A0,$A0,$A0,$A0,$A0,$A0,$A0,$A0,$A0,$A0,$A0,$A0,$A0,$A0,$A0,$A0,$A0,$A0,$A0,$A0,$A0 
00358  2580  E0 E0 E0   	BYTE	$E0,$E0,$E0,$E0,$E0,$E0,$A0,$E0,$A0,$A0,$A0,$A0,$A0,$A0,$A0,$A0,$A0,$A0,$A0,$A0,$E0,$E0,$E0,$E0,$E0,$E0,$E0,$E0,$E0,$E0,$E0,$E0,$E0,$E0,$E0,$E0,$E0,$E0,$E0,$E0 
00359  25A8             
00360  25A8             @          
00361  25A8                        INCBIN "SCREEN.SDD",1,1,CHAR
00362  25A8                        
00363  25A8             BGCOL
00364  25A8             @          
00365  25A8             ; SCREEN 1 COLOUR DATA
00366  25A8  06 06 06   	BYTE	$06,$06,$06,$06,$06,$06,$06,$06,$06,$06,$06,$06,$06,$06,$06,$06,$06,$06,$06,$06,$06,$06,$06,$06,$06,$06,$06,$06,$06,$06,$06,$06,$06,$06,$06,$06,$06,$06,$06,$06 
00367  25D0  06 06 06   	BYTE	$06,$06,$06,$06,$06,$06,$06,$06,$06,$06,$06,$06,$06,$06,$06,$06,$06,$06,$06,$06,$06,$06,$06,$06,$06,$06,$06,$06,$06,$06,$06,$06,$06,$06,$06,$06,$06,$06,$06,$06 
00368  25F8  06 06 06   	BYTE	$06,$06,$06,$06,$06,$06,$06,$06,$06,$06,$06,$06,$06,$06,$06,$06,$06,$06,$06,$06,$06,$06,$06,$06,$06,$06,$06,$06,$06,$06,$06,$06,$06,$06,$06,$06,$06,$06,$06,$06 
00369  2620  06 06 06   	BYTE	$06,$06,$06,$06,$06,$06,$06,$06,$06,$06,$06,$06,$06,$06,$06,$06,$06,$06,$06,$06,$06,$06,$06,$06,$06,$06,$06,$06,$06,$06,$06,$06,$06,$06,$06,$06,$06,$06,$06,$06 
00370  2648  06 06 06   	BYTE	$06,$06,$06,$06,$06,$06,$06,$06,$06,$06,$06,$06,$06,$06,$06,$06,$06,$06,$06,$06,$06,$06,$06,$06,$06,$06,$06,$06,$06,$06,$06,$06,$06,$06,$06,$06,$06,$06,$06,$06 
00371  2670  0E 0E 0E   	BYTE	$0E,$0E,$0E,$0E,$0E,$0E,$0E,$0E,$0E,$0E,$0E,$0E,$0E,$0E,$0E,$0E,$0E,$0E,$0E,$0E,$0E,$0E,$0E,$0E,$0E,$0E,$0E,$0E,$0E,$0E,$0E,$0E,$0E,$0E,$0E,$0E,$0E,$0E,$0E,$0E 
00372  2698  01 06 06   	BYTE	$01,$06,$06,$06,$06,$06,$06,$06,$06,$06,$06,$06,$06,$06,$06,$06,$06,$06,$06,$06,$06,$06,$06,$06,$06,$06,$07,$07,$07,$06,$06,$06,$06,$06,$06,$06,$06,$06,$06,$06 
00373  26C0  01 01 0E   	BYTE	$01,$01,$0E,$0E,$0E,$0E,$0E,$0E,$0E,$0E,$0E,$0E,$0E,$0E,$0E,$01,$01,$01,$0E,$0E,$0E,$0E,$0E,$0E,$0E,$07,$07,$07,$07,$07,$0E,$0E,$0E,$0E,$0E,$01,$01,$0E,$0E,$0E 
00374  26E8  01 01 01   	BYTE	$01,$01,$01,$01,$06,$06,$06,$06,$06,$06,$06,$06,$06,$06,$01,$01,$01,$01,$01,$01,$01,$06,$06,$06,$06,$07,$07,$07,$07,$07,$06,$06,$06,$01,$01,$01,$01,$01,$06,$06 
00375  2710  01 01 01   	BYTE	$01,$01,$01,$01,$01,$0E,$0E,$0E,$0E,$0E,$0E,$0E,$0E,$01,$01,$01,$01,$01,$01,$01,$01,$01,$01,$0E,$0E,$07,$07,$07,$07,$07,$0E,$0E,$01,$01,$01,$01,$01,$01,$01,$0E 
00376  2738  0E 0E 0E   	BYTE	$0E,$0E,$0E,$0E,$0E,$0E,$0E,$0E,$0E,$0E,$0E,$0E,$0E,$0E,$0E,$0E,$0E,$0E,$0E,$0E,$0E,$0E,$0E,$0E,$0E,$0E,$07,$07,$07,$0E,$0E,$0E,$0E,$0E,$0E,$0E,$0E,$0E,$0E,$0E 
00377  2760  06 06 06   	BYTE	$06,$06,$06,$06,$06,$06,$06,$06,$06,$06,$06,$06,$06,$06,$06,$06,$06,$06,$06,$06,$06,$06,$06,$06,$06,$06,$06,$06,$06,$06,$06,$06,$06,$06,$06,$06,$06,$06,$06,$06 
00378  2788  0E 0E 0E   	BYTE	$0E,$0E,$0E,$0E,$0E,$0E,$0E,$0E,$0E,$0E,$0E,$0E,$0E,$0E,$0E,$0E,$0E,$0E,$0E,$0E,$0E,$0E,$0E,$0E,$0E,$0E,$0E,$0E,$0E,$0E,$0E,$0E,$0E,$0E,$0E,$0E,$0E,$0E,$0E,$0E 
00379  27B0  0E 0E 0E   	BYTE	$0E,$0E,$0E,$0E,$0E,$0E,$0E,$0E,$0E,$0E,$0E,$0E,$0E,$0E,$0E,$0E,$0E,$0E,$0E,$0E,$0E,$0E,$0E,$0E,$0E,$0E,$0E,$0E,$0E,$0E,$0E,$0E,$0E,$0E,$0E,$0E,$0E,$0E,$0E,$0E 
00380  27D8  0E 0E 0E   	BYTE	$0E,$0E,$0E,$0E,$0E,$0E,$0E,$0E,$0E,$0E,$0E,$0E,$0E,$0E,$0E,$0E,$0E,$0E,$0E,$0E,$0E,$0E,$0E,$0E,$0E,$0E,$0E,$0E,$0E,$0E,$0E,$0E,$0E,$0E,$0E,$0E,$0E,$0E,$0E,$0E 
00381  2800  0E 0E 0E   	BYTE	$0E,$0E,$0E,$0E,$0E,$0E,$0E,$0E,$0E,$0E,$0E,$0E,$0E,$0E,$0E,$0E,$0E,$0E,$0E,$0E,$0E,$0E,$0E,$0E,$0E,$0E,$0E,$0E,$0E,$0E,$0E,$0E,$0E,$0E,$0E,$0E,$0E,$0E,$0E,$0E 
00382  2828  0E 0E 0E   	BYTE	$0E,$0E,$0E,$0E,$0E,$0E,$0E,$0E,$0E,$0E,$0E,$0E,$0E,$0E,$0E,$0E,$0E,$0E,$0E,$0E,$0E,$0E,$0E,$0E,$0E,$0E,$0E,$0E,$0E,$0E,$0E,$0E,$0E,$0E,$0E,$0E,$0E,$0E,$0E,$0E 
00383  2850  0E 0E 0E   	BYTE	$0E,$0E,$0E,$0E,$0E,$0E,$0E,$0E,$0E,$0E,$0E,$0E,$0E,$0E,$0E,$0E,$0E,$0E,$0E,$0E,$0E,$0E,$0E,$0E,$0E,$0E,$0E,$0E,$0E,$0E,$0E,$0E,$0E,$0E,$0E,$0E,$0E,$0E,$0E,$0E 
00384  2878  0E 0E 0E   	BYTE	$0E,$0E,$0E,$0E,$0D,$0E,$0E,$0E,$0E,$0E,$0E,$0E,$0E,$0E,$0E,$0E,$0E,$0E,$0D,$0E,$0E,$0E,$0E,$0E,$0E,$0E,$0E,$0E,$0E,$0E,$0E,$0E,$0E,$0E,$0E,$0D,$0E,$0E,$0E,$0E 
00385  28A0  0E 0E 0D   	BYTE	$0E,$0E,$0D,$0E,$0D,$0E,$0D,$0E,$0E,$0E,$0E,$0E,$0E,$0E,$0E,$0E,$0D,$0E,$0D,$0E,$0D,$0E,$0E,$0E,$0E,$0E,$0E,$0E,$0E,$0E,$0E,$0E,$0E,$0D,$0E,$0D,$0E,$0D,$0E,$0E 
00386  28C8  0D 0D 0D   	BYTE	$0D,$0D,$0D,$0D,$0D,$0D,$0D,$0D,$0D,$0D,$0D,$0D,$0D,$0D,$0D,$0D,$0D,$0D,$0D,$0D,$0D,$0D,$0D,$0D,$0D,$0D,$0D,$0D,$0D,$0D,$0D,$0D,$0D,$0D,$0D,$0D,$0D,$0D,$0D,$0D 
00387  28F0  0D 0D 05   	BYTE	$0D,$0D,$05,$0D,$0D,$0D,$05,$0D,$0D,$0D,$05,$0D,$0D,$0D,$05,$0D,$0D,$0D,$05,$0D,$0D,$0D,$05,$0D,$0D,$0D,$05,$0D,$0D,$0D,$05,$0D,$0D,$0D,$05,$0D,$0D,$0D,$05,$0D 
00388  2918  0D 05 05   	BYTE	$0D,$05,$05,$05,$0D,$05,$05,$05,$0D,$05,$05,$05,$0D,$05,$05,$05,$0D,$05,$05,$05,$0D,$05,$05,$05,$0D,$05,$05,$05,$0D,$05,$05,$05,$0D,$05,$05,$05,$0D,$05,$05,$05 
00389  2940  05 05 05   	BYTE	$05,$05,$05,$05,$05,$05,$05,$05,$05,$05,$05,$05,$05,$05,$05,$05,$05,$05,$05,$05,$05,$05,$05,$05,$05,$05,$05,$05,$05,$05,$05,$05,$05,$05,$05,$05,$05,$05,$05,$05 
00390  2968  05 05 05   	BYTE	$05,$05,$05,$05,$05,$05,$05,$05,$05,$05,$05,$05,$05,$05,$05,$05,$05,$05,$05,$05,$05,$05,$05,$05,$05,$05,$05,$05,$05,$05,$05,$05,$05,$05,$05,$05,$05,$05,$05,$05 
00391  2990             
00392  2990             @          
00393  2990                        INCBIN "SCREEN.SDD",1,1,COLOUR
00394  2990             
00395  2990             
00396  2990             
00397  2990             
00398  2990             
00399  2990             

******* 32 Label(s) *******
bgchar = $21C0 
bgcol = $25A8 
bgloop = $C065 
bgloop2 = $C082 
buttondown = $C1A9 
checkgameover = $C17E 
checkjoystick = $C0CA 
checkright = $C0E4 
chkbutton = $C0F4 
drawbackground = $C05B 
end = $C119 
end2 = $C13D 
frames = $C1AB 
frend = $C15A 
gameover = $C1AA 
initsprites = $C09E 
loop = $C02F 
loopcont = $C032 
ploop = $C042 
positionsprites = $C03E 
rend = $C17D 
rend2 = $C175 
sprites = $2000 
spritexhi = $C198 
spritexlo = $C190 
spritey = $C1A0 
start = $C000 
wait00 = $C146 
waitend = $C18F 
waitff = $C140 
waitraster = $C13E 
walking = $C1A8 

******* 4 Unused label(s) *******
bgchar
loopcont
sprites
start

******* 1 Variable(s) *******
tgt_c64  = $0001
******* 1 Unused variables(s) *******
tgt_c64

